; Function Attrs: mustprogress uwtable
define hidden void @_ZN5array6solver10ensure_varEPN3euf5enodeE(ptr noundef nonnull align 8 dereferenceable(536) %0, ptr noundef %1) local_unnamed_addr #3 align 2 {
  %3 = getelementptr inbounds nuw i8, ptr %0, i64 12
  %4 = load i32, ptr %3, align 4, !tbaa !31
  %5 = getelementptr inbounds nuw i8, ptr %1, i64 88
  %6 = load i32, ptr %5, align 8
  %7 = icmp ugt i32 %6, -257
  br i1 %7, label %_ZNK3euf5enode10get_th_varEi.exit.thread, label %.preheader.i.i.preheader

.preheader.i.i.preheader:                         ; preds = %2
  %8 = shl i32 %6, 24
  %9 = ashr exact i32 %8, 24
  %10 = icmp eq i32 %4, %9
  br i1 %10, label %_Z9is_lambdaPK3ast.exit.thread, label %.lr.ph

.preheader.i.ithread-pre-split:                   ; preds = %.lr.ph
  %.pr = load i32, ptr %15, align 8
  %11 = shl i32 %.pr, 24
  %12 = ashr exact i32 %11, 24
  %13 = icmp eq i32 %4, %12
  br i1 %13, label %.preheader.i.i._ZNK3euf5enode10get_th_varEi.exit_crit_edge, label %.lr.ph

.lr.ph:                                           ; preds = %.preheader.i.i.preheader, %.preheader.i.ithread-pre-split
  %.0.i.i10 = phi ptr [ %15, %.preheader.i.ithread-pre-split ], [ %5, %.preheader.i.i.preheader ]
  %14 = getelementptr inbounds nuw i8, ptr %.0.i.i10, i64 8
  %15 = load ptr, ptr %14, align 8, !tbaa !51
  %.not.i.i = icmp eq ptr %15, null
  br i1 %.not.i.i, label %_ZNK3euf5enode10get_th_varEi.exit.thread, label %.preheader.i.ithread-pre-split, !llvm.loop !54

.preheader.i.i._ZNK3euf5enode10get_th_varEi.exit_crit_edge: ; preds = %.preheader.i.ithread-pre-split
  %16 = icmp ugt i32 %.pr, -257
  br i1 %16, label %_ZNK3euf5enode10get_th_varEi.exit.thread, label %_Z9is_lambdaPK3ast.exit.thread

_ZNK3euf5enode10get_th_varEi.exit.thread:         ; preds = %.lr.ph, %2, %.preheader.i.i._ZNK3euf5enode10get_th_varEi.exit_crit_edge
  %17 = load ptr, ptr %0, align 8, !tbaa !56
  %18 = getelementptr inbounds nuw i8, ptr %17, i64 528
  %19 = load ptr, ptr %18, align 8
  %20 = tail call noundef i32 %19(ptr noundef nonnull align 8 dereferenceable(536) %0, ptr noundef nonnull %1)
  %21 = load ptr, ptr %1, align 8, !tbaa !58
  %22 = getelementptr inbounds nuw i8, ptr %21, i64 4
  %23 = load i32, ptr %22, align 4
  %24 = and i32 %23, 65535
  %25 = icmp eq i32 %24, 2
  br i1 %25, label %_Z9is_lambdaPK3ast.exit, label %_Z9is_lambdaPK3ast.exit.thread

_Z9is_lambdaPK3ast.exit:                          ; preds = %_ZNK3euf5enode10get_th_varEi.exit.thread
  %26 = getelementptr inbounds nuw i8, ptr %21, i64 16
  %27 = load i32, ptr %26, align 8, !tbaa !68
  %28 = icmp eq i32 %27, 2
  br i1 %28, label %29, label %_Z9is_lambdaPK3ast.exit.thread

29:                                               ; preds = %_Z9is_lambdaPK3ast.exit
  tail call void @_ZN5array6solver21internalize_lambda_ehEPN3euf5enodeE(ptr noundef nonnull align 8 dereferenceable(536) %0, ptr noundef nonnull %1)
  br label %_Z9is_lambdaPK3ast.exit.thread

_Z9is_lambdaPK3ast.exit.thread:                   ; preds = %.preheader.i.i.preheader, %_ZNK3euf5enode10get_th_varEi.exit.thread, %_Z9is_lambdaPK3ast.exit, %29, %.preheader.i.i._ZNK3euf5enode10get_th_varEi.exit_crit_edge
  ret void
}